# SymbolsHelper-Confirmed: 4:5.11.4 amd64
libkwineffects.so.11 libkwineffects11 #MINVER#
 _ZN4KWin11EffectFrame15enableCrossFadeEb@Base 4:5.1.95+git20150122
 _ZN4KWin11EffectFrame20setCrossFadeProgressEd@Base 4:5.1.95+git20150122
 _ZN4KWin11EffectFrame25setScreenProjectionMatrixERK10QMatrix4x4@Base 4:5.6.2
 _ZN4KWin11EffectFrameC1Ev@Base 4:5.1.95+git20150122
 _ZN4KWin11EffectFrameC2Ev@Base 4:5.1.95+git20150122
 _ZN4KWin11EffectFrameD0Ev@Base 4:5.1.95+git20150122
 _ZN4KWin11EffectFrameD1Ev@Base 4:5.1.95+git20150122
 _ZN4KWin11EffectFrameD2Ev@Base 4:5.1.95+git20150122
 _ZN4KWin12EffectWindow10addRepaintERK5QRect@Base 4:5.1.95+git20150122
 _ZN4KWin12EffectWindow10addRepaintEiiii@Base 4:5.1.95+git20150122
 _ZN4KWin12EffectWindow10unminimizeEv@Base 4:5.1.95+git20150122
 _ZN4KWin12EffectWindow11qt_metacallEN11QMetaObject4CallEiPPv@Base 4:5.1.95+git20150122
 _ZN4KWin12EffectWindow11qt_metacastEPKc@Base 4:5.1.95+git20150122
 _ZN4KWin12EffectWindow12setMinimizedEb@Base 4:5.1.95+git20150122
 _ZN4KWin12EffectWindow14addRepaintFullEv@Base 4:5.1.95+git20150122
 _ZN4KWin12EffectWindow15addLayerRepaintERK5QRect@Base 4:5.1.95+git20150122
 _ZN4KWin12EffectWindow15addLayerRepaintEiiii@Base 4:5.1.95+git20150122
 _ZN4KWin12EffectWindow16staticMetaObjectE@Base 4:5.1.95+git20150122
 _ZN4KWin12EffectWindow8minimizeEv@Base 4:5.1.95+git20150122
 _ZN4KWin12EffectWindowC1EP7QObject@Base 4:5.1.95+git20150122
 _ZN4KWin12EffectWindowC2EP7QObject@Base 4:5.1.95+git20150122
 _ZN4KWin12EffectWindowD0Ev@Base 4:5.1.95+git20150122
 _ZN4KWin12EffectWindowD1Ev@Base 4:5.1.95+git20150122
 _ZN4KWin12EffectWindowD2Ev@Base 4:5.1.95+git20150122
 _ZN4KWin12PaintClipper3popERK7QRegion@Base 4:5.1.95+git20150122
 _ZN4KWin12PaintClipper4clipEv@Base 4:5.1.95+git20150122
 _ZN4KWin12PaintClipper4pushERK7QRegion@Base 4:5.1.95+git20150122
 _ZN4KWin12PaintClipper5areasE@Base 4:5.1.95+git20150122
 _ZN4KWin12PaintClipper8Iterator4nextEv@Base 4:5.1.95+git20150122
 _ZN4KWin12PaintClipper8Iterator6isDoneEv@Base 4:5.1.95+git20150122
 _ZN4KWin12PaintClipper8IteratorC1Ev@Base 4:5.1.95+git20150122
 _ZN4KWin12PaintClipper8IteratorC2Ev@Base 4:5.1.95+git20150122
 _ZN4KWin12PaintClipper8IteratorD1Ev@Base 4:5.1.95+git20150122
 _ZN4KWin12PaintClipper8IteratorD2Ev@Base 4:5.1.95+git20150122
 _ZN4KWin12PaintClipper9paintAreaEv@Base 4:5.1.95+git20150122
 _ZN4KWin12PaintClipperC1ERK7QRegion@Base 4:5.1.95+git20150122
 _ZN4KWin12PaintClipperC2ERK7QRegion@Base 4:5.1.95+git20150122
 _ZN4KWin12PaintClipperD1Ev@Base 4:5.1.95+git20150122
 _ZN4KWin12PaintClipperD2Ev@Base 4:5.1.95+git20150122
 _ZN4KWin14EffectsHandler10tabRemovedEPNS_12EffectWindowES2_@Base 4:5.1.95+git20150122
 _ZN4KWin14EffectsHandler11qt_metacallEN11QMetaObject4CallEiPPv@Base 4:5.1.95+git20150122
 _ZN4KWin14EffectsHandler11qt_metacastEPKc@Base 4:5.1.95+git20150122
 _ZN4KWin14EffectsHandler11tabBoxAddedEi@Base 4:5.1.95+git20150122
 _ZN4KWin14EffectsHandler11windowAddedEPNS_12EffectWindowE@Base 4:5.1.95+git20150122
 _ZN4KWin14EffectsHandler11windowShownEPNS_12EffectWindowE@Base 4:5.8.0
 _ZN4KWin14EffectsHandler12mouseChangedERK6QPointS3_6QFlagsIN2Qt11MouseButtonEES7_S4_INS5_16KeyboardModifierEES9_@Base 4:5.1.95+git20150122
 _ZN4KWin14EffectsHandler12tabBoxClosedEv@Base 4:5.1.95+git20150122
 _ZN4KWin14EffectsHandler12windowClosedEPNS_12EffectWindowE@Base 4:5.1.95+git20150122
 _ZN4KWin14EffectsHandler12windowHiddenEPNS_12EffectWindowE@Base 4:5.8.0
 _ZN4KWin14EffectsHandler13activityAddedERK7QString@Base 4:5.1.95+git20150122
 _ZN4KWin14EffectsHandler13tabBoxUpdatedEv@Base 4:5.1.95+git20150122
 _ZN4KWin14EffectsHandler13windowDamagedEPNS_12EffectWindowERK5QRect@Base 4:5.1.95+git20150122
 _ZN4KWin14EffectsHandler13windowDeletedEPNS_12EffectWindowE@Base 4:5.1.95+git20150122
 _ZN4KWin14EffectsHandler14desktopChangedEii@Base 4:5.1.95+git20150122
 _ZN4KWin14EffectsHandler14desktopChangedEiiPNS_12EffectWindowE@Base 4:5.1.95+git20150122
 _ZN4KWin14EffectsHandler14propertyNotifyEPNS_12EffectWindowEl@Base 4:5.1.95+git20150122
 _ZN4KWin14EffectsHandler14tabBoxKeyEventEP9QKeyEvent@Base 4:5.1.95+git20150122
 _ZN4KWin14EffectsHandler15activityRemovedERK7QString@Base 4:5.1.95+git20150122
 _ZN4KWin14EffectsHandler15windowActivatedEPNS_12EffectWindowE@Base 4:5.1.95+git20150122
 _ZN4KWin14EffectsHandler15windowMinimizedEPNS_12EffectWindowE@Base 4:5.1.95+git20150122
 _ZN4KWin14EffectsHandler16staticMetaObjectE@Base 4:5.1.95+git20150122
 _ZN4KWin14EffectsHandler17windowDataChangedEPNS_12EffectWindowEi@Base 4:5.8.5
 _ZN4KWin14EffectsHandler17windowUnminimizedEPNS_12EffectWindowE@Base 4:5.1.95+git20150122
 _ZN4KWin14EffectsHandler18cursorShapeChangedEv@Base 4:5.3.0
 _ZN4KWin14EffectsHandler20numberScreensChangedEv@Base 4:5.1.95+git20150122
 _ZN4KWin14EffectsHandler20screenLockingChangedEb@Base 4:5.1.95+git20150122
 _ZN4KWin14EffectsHandler20stackingOrderChangedEv@Base 4:5.1.95+git20150122
 _ZN4KWin14EffectsHandler20windowOpacityChangedEPNS_12EffectWindowEdd@Base 4:5.1.95+git20150122
 _ZN4KWin14EffectsHandler20windowPaddingChangedEPNS_12EffectWindowERK5QRect@Base 4:5.1.95+git20150122
 _ZN4KWin14EffectsHandler20xcbConnectionChangedEv@Base 4:5.11.4
 _ZN4KWin14EffectsHandler21numberDesktopsChangedEj@Base 4:5.1.95+git20150122
 _ZN4KWin14EffectsHandler21screenEdgeApproachingENS_14ElectricBorderEdRK5QRect@Base 4:5.1.95+git20150122
 _ZN4KWin14EffectsHandler21screenGeometryChangedERK5QSize@Base 4:5.1.95+git20150122
 _ZN4KWin14EffectsHandler21showingDesktopChangedEb@Base 4:5.3.0
 _ZN4KWin14EffectsHandler21windowModalityChangedEPNS_12EffectWindowE@Base 4:5.1.95+git20150122
 _ZN4KWin14EffectsHandler22currentActivityChangedERK7QString@Base 4:5.1.95+git20150122
 _ZN4KWin14EffectsHandler22desktopPresenceChangedEPNS_12EffectWindowEii@Base 4:5.1.95+git20150122
 _ZN4KWin14EffectsHandler23currentTabAboutToChangeEPNS_12EffectWindowES2_@Base 4:5.1.95+git20150122
 _ZN4KWin14EffectsHandler24virtualScreenSizeChangedEv@Base 4:5.1.95+git20150122
 _ZN4KWin14EffectsHandler25windowUnresponsiveChangedEPNS_12EffectWindowEb@Base 4:5.10.3.1
 _ZN4KWin14EffectsHandler26windowGeometryShapeChangedEPNS_12EffectWindowERK5QRect@Base 4:5.1.95+git20150122
 _ZN4KWin14EffectsHandler26windowStepUserMovedResizedEPNS_12EffectWindowERK5QRect@Base 4:5.1.95+git20150122
 _ZN4KWin14EffectsHandler27windowMaximizedStateChangedEPNS_12EffectWindowEbb@Base 4:5.1.95+git20150122
 _ZN4KWin14EffectsHandler27windowStartUserMovedResizedEPNS_12EffectWindowE@Base 4:5.1.95+git20150122
 _ZN4KWin14EffectsHandler28virtualScreenGeometryChangedEv@Base 4:5.1.95+git20150122
 _ZN4KWin14EffectsHandler28windowFinishUserMovedResizedEPNS_12EffectWindowE@Base 4:5.1.95+git20150122
 _ZN4KWin14EffectsHandler8tabAddedEPNS_12EffectWindowES2_@Base 4:5.1.95+git20150122
 _ZN4KWin14EffectsHandlerC1ENS_15CompositingTypeE@Base 4:5.1.95+git20150122
 _ZN4KWin14EffectsHandlerC2ENS_15CompositingTypeE@Base 4:5.1.95+git20150122
 _ZN4KWin14EffectsHandlerD0Ev@Base 4:5.1.95+git20150122
 _ZN4KWin14EffectsHandlerD1Ev@Base 4:5.1.95+git20150122
 _ZN4KWin14EffectsHandlerD2Ev@Base 4:5.1.95+git20150122
 _ZN4KWin15AnimationEffect11paintWindowEPNS_12EffectWindowEi7QRegionRNS_15WindowPaintDataE@Base 4:5.1.95+git20150122
 _ZN4KWin15AnimationEffect11qt_metacallEN11QMetaObject4CallEiPPv@Base 4:5.1.95+git20150122
 _ZN4KWin15AnimationEffect11qt_metacastEPKc@Base 4:5.1.95+git20150122
 _ZN4KWin15AnimationEffect11setMetaDataENS0_8MetaTypeEjRj@Base 4:5.1.95+git20150122
 _ZN4KWin15AnimationEffect13_windowClosedEPNS_12EffectWindowE@Base 4:5.1.95+git20150122
 _ZN4KWin15AnimationEffect14_windowDeletedEPNS_12EffectWindowE@Base 4:5.1.95+git20150122
 _ZN4KWin15AnimationEffect14prePaintScreenERNS_18ScreenPrePaintDataEi@Base 4:5.1.95+git20150122
 _ZN4KWin15AnimationEffect14prePaintWindowEPNS_12EffectWindowERNS_18WindowPrePaintDataEi@Base 4:5.1.95+git20150122
 _ZN4KWin15AnimationEffect14triggerRepaintEv@Base 4:5.1.95+git20150122
 _ZN4KWin15AnimationEffect15postPaintScreenEv@Base 4:5.1.95+git20150122
 _ZN4KWin15AnimationEffect16staticMetaObjectE@Base 4:5.1.95+git20150122
 _ZN4KWin15AnimationEffect19updateLayerRepaintsEv@Base 4:5.1.95+git20150122
 _ZN4KWin15AnimationEffect24_expandedGeometryChangedEPNS_12EffectWindowERK5QRect@Base 4:5.1.95+git20150122
 _ZN4KWin15AnimationEffect25disconnectGeometryChangesEv@Base 4:5.1.95+git20150122
 _ZN4KWin15AnimationEffect4initEv@Base 4:5.1.95+git20150122
 _ZN4KWin15AnimationEffect6cancelEy@Base 4:5.1.95+git20150122
 _ZN4KWin15AnimationEffect7s_clockE@Base 4:5.1.95+git20150122
 _ZN4KWin15AnimationEffect8metaDataENS0_8MetaTypeEj@Base 4:5.1.95+git20150122
 _ZN4KWin15AnimationEffect8retargetEyNS_4FPx2Ei@Base 4:5.6.2
 _ZN4KWin15AnimationEffect9p_animateEPNS_12EffectWindowENS0_9AttributeEjiNS_4FPx2E12QEasingCurveiS4_b@Base 4:5.1.95+git20150122
 _ZN4KWin15AnimationEffectC1Ev@Base 4:5.1.95+git20150122
 _ZN4KWin15AnimationEffectC2Ev@Base 4:5.1.95+git20150122
 _ZN4KWin15AnimationEffectD0Ev@Base 4:5.6.2
 _ZN4KWin15AnimationEffectD1Ev@Base 4:5.6.2
 _ZN4KWin15AnimationEffectD2Ev@Base 4:5.6.2
 _ZN4KWin15ScreenPaintDataC1ERK10QMatrix4x4RK5QRect@Base 4:5.10.3.1
 _ZN4KWin15ScreenPaintDataC1ERKS0_@Base 4:5.1.95+git20150122
 _ZN4KWin15ScreenPaintDataC1Ev@Base 4:5.1.95+git20150122
 _ZN4KWin15ScreenPaintDataC2ERK10QMatrix4x4RK5QRect@Base 4:5.10.3.1
 _ZN4KWin15ScreenPaintDataC2ERKS0_@Base 4:5.1.95+git20150122
 _ZN4KWin15ScreenPaintDataC2Ev@Base 4:5.1.95+git20150122
 _ZN4KWin15ScreenPaintDataD0Ev@Base 4:5.6.2
 _ZN4KWin15ScreenPaintDataD1Ev@Base 4:5.6.2
 _ZN4KWin15ScreenPaintDataD2Ev@Base 4:5.6.2
 _ZN4KWin15ScreenPaintDataaSERKS0_@Base 4:5.1.95+git20150122
 _ZN4KWin15ScreenPaintDatamLERK9QVector2D@Base 4:5.1.95+git20150122
 _ZN4KWin15ScreenPaintDatamLERK9QVector3D@Base 4:5.1.95+git20150122
 _ZN4KWin15ScreenPaintDatamLEd@Base 4:5.1.95+git20150122
 _ZN4KWin15ScreenPaintDatapLERK6QPoint@Base 4:5.1.95+git20150122
 _ZN4KWin15ScreenPaintDatapLERK7QPointF@Base 4:5.1.95+git20150122
 _ZN4KWin15ScreenPaintDatapLERK9QVector2D@Base 4:5.1.95+git20150122
 _ZN4KWin15ScreenPaintDatapLERK9QVector3D@Base 4:5.1.95+git20150122
 _ZN4KWin15WindowPaintData10setOpacityEd@Base 4:5.1.95+git20150122
 _ZN4KWin15WindowPaintData13setBrightnessEd@Base 4:5.1.95+git20150122
 _ZN4KWin15WindowPaintData15multiplyOpacityEd@Base 4:5.1.95+git20150122
 _ZN4KWin15WindowPaintData16rmodelViewMatrixEv@Base 4:5.1.95+git20150122
 _ZN4KWin15WindowPaintData17rprojectionMatrixEv@Base 4:5.1.95+git20150122
 _ZN4KWin15WindowPaintData18multiplyBrightnessEd@Base 4:5.1.95+git20150122
 _ZN4KWin15WindowPaintData18multiplySaturationEd@Base 4:5.1.95+git20150122
 _ZN4KWin15WindowPaintData18setModelViewMatrixERK10QMatrix4x4@Base 4:5.1.95+git20150122
 _ZN4KWin15WindowPaintData19setProjectionMatrixERK10QMatrix4x4@Base 4:5.1.95+git20150122
 _ZN4KWin15WindowPaintData20setCrossFadeProgressEd@Base 4:5.1.95+git20150122
 _ZN4KWin15WindowPaintDataC1EPNS_12EffectWindowE@Base 4:5.1.95+git20150122
 _ZN4KWin15WindowPaintDataC1EPNS_12EffectWindowERK10QMatrix4x4@Base 4:5.6.2
 _ZN4KWin15WindowPaintDataC1ERKS0_@Base 4:5.1.95+git20150122
 _ZN4KWin15WindowPaintDataC2EPNS_12EffectWindowE@Base 4:5.1.95+git20150122
 _ZN4KWin15WindowPaintDataC2EPNS_12EffectWindowERK10QMatrix4x4@Base 4:5.6.2
 _ZN4KWin15WindowPaintDataC2ERKS0_@Base 4:5.1.95+git20150122
 _ZN4KWin15WindowPaintDataD0Ev@Base 4:5.1.95+git20150122
 _ZN4KWin15WindowPaintDataD1Ev@Base 4:5.1.95+git20150122
 _ZN4KWin15WindowPaintDataD2Ev@Base 4:5.1.95+git20150122
 _ZN4KWin15WindowPaintDatamLERK9QVector2D@Base 4:5.1.95+git20150122
 _ZN4KWin15WindowPaintDatamLERK9QVector3D@Base 4:5.1.95+git20150122
 _ZN4KWin15WindowPaintDatamLEd@Base 4:5.1.95+git20150122
 _ZN4KWin15WindowPaintDatapLERK6QPoint@Base 4:5.1.95+git20150122
 _ZN4KWin15WindowPaintDatapLERK7QPointF@Base 4:5.1.95+git20150122
 _ZN4KWin15WindowPaintDatapLERK9QVector2D@Base 4:5.1.95+git20150122
 _ZN4KWin15WindowPaintDatapLERK9QVector3D@Base 4:5.1.95+git20150122
 _ZN4KWin17EffectWindowGroupD0Ev@Base 4:5.1.95+git20150122
 _ZN4KWin17EffectWindowGroupD1Ev@Base 4:5.1.95+git20150122
 _ZN4KWin17EffectWindowGroupD2Ev@Base 4:5.1.95+git20150122
 _ZN4KWin18WindowPrePaintData14setTransformedEv@Base 4:5.1.95+git20150122
 _ZN4KWin18WindowPrePaintData14setTranslucentEv@Base 4:5.1.95+git20150122
 _ZN4KWin19EffectPluginFactory11qt_metacallEN11QMetaObject4CallEiPPv@Base 4:5.1.95+git20150122
 _ZN4KWin19EffectPluginFactory11qt_metacastEPKc@Base 4:5.1.95+git20150122
 _ZN4KWin19EffectPluginFactory16staticMetaObjectE@Base 4:5.1.95+git20150122
 _ZN4KWin19EffectPluginFactoryC1Ev@Base 4:5.1.95+git20150122
 _ZN4KWin19EffectPluginFactoryC2Ev@Base 4:5.1.95+git20150122
 _ZN4KWin19EffectPluginFactoryD0Ev@Base 4:5.1.95+git20150122
 _ZN4KWin19EffectPluginFactoryD1Ev@Base 4:5.1.95+git20150122
 _ZN4KWin19EffectPluginFactoryD2Ev@Base 4:5.1.95+git20150122
 _ZN4KWin19WindowMotionManager10moveWindowEPNS_12EffectWindowE6QPointdd@Base 4:5.1.95+git20150122
 _ZN4KWin19WindowMotionManager11unmanageAllEv@Base 4:5.1.95+git20150122
 _ZN4KWin19WindowMotionManager22setTransformedGeometryEPNS_12EffectWindowERK6QRectF@Base 4:5.1.95+git20150122
 _ZN4KWin19WindowMotionManager5applyEPNS_12EffectWindowERNS_15WindowPaintDataE@Base 4:5.1.95+git20150122
 _ZN4KWin19WindowMotionManager5resetEPNS_12EffectWindowE@Base 4:5.1.95+git20150122
 _ZN4KWin19WindowMotionManager5resetEv@Base 4:5.1.95+git20150122
 _ZN4KWin19WindowMotionManager6manageEPNS_12EffectWindowE@Base 4:5.1.95+git20150122
 _ZN4KWin19WindowMotionManager8unmanageEPNS_12EffectWindowE@Base 4:5.1.95+git20150122
 _ZN4KWin19WindowMotionManager9calculateEi@Base 4:5.1.95+git20150122
 _ZN4KWin19WindowMotionManagerC1Eb@Base 4:5.1.95+git20150122
 _ZN4KWin19WindowMotionManagerC2Eb@Base 4:5.1.95+git20150122
 _ZN4KWin19WindowMotionManagerD1Ev@Base 4:5.1.95+git20150122
 _ZN4KWin19WindowMotionManagerD2Ev@Base 4:5.1.95+git20150122
 _ZN4KWin6Effect10buildQuadsEPNS_12EffectWindowERNS_14WindowQuadListE@Base 4:5.1.95+git20150122
 _ZN4KWin6Effect10drawWindowEPNS_12EffectWindowEi7QRegionRNS_15WindowPaintDataE@Base 4:5.1.95+git20150122
 _ZN4KWin6Effect11paintScreenEi7QRegionRNS_15ScreenPaintDataE@Base 4:5.1.95+git20150122
 _ZN4KWin6Effect11paintWindowEPNS_12EffectWindowEi7QRegionRNS_15WindowPaintDataE@Base 4:5.1.95+git20150122
 _ZN4KWin6Effect11qt_metacallEN11QMetaObject4CallEiPPv@Base 4:5.1.95+git20150122
 _ZN4KWin6Effect11qt_metacastEPKc@Base 4:5.1.95+git20150122
 _ZN4KWin6Effect11reconfigureE6QFlagsINS0_15ReconfigureFlagEE@Base 4:5.1.95+git20150122
 _ZN4KWin6Effect11touchMotionEjRK7QPointFj@Base 4:5.8.0
 _ZN4KWin6Effect13animationTimeERK12KConfigGroupRK7QStringi@Base 4:5.1.95+git20150122
 _ZN4KWin6Effect13animationTimeEi@Base 4:5.1.95+git20150122
 _ZN4KWin6Effect14prePaintScreenERNS_18ScreenPrePaintDataEi@Base 4:5.1.95+git20150122
 _ZN4KWin6Effect14prePaintWindowEPNS_12EffectWindowERNS_18WindowPrePaintDataEi@Base 4:5.1.95+git20150122
 _ZN4KWin6Effect15borderActivatedENS_14ElectricBorderE@Base 4:5.1.95+git20150122
 _ZN4KWin6Effect15postPaintScreenEv@Base 4:5.1.95+git20150122
 _ZN4KWin6Effect15postPaintWindowEPNS_12EffectWindowE@Base 4:5.1.95+git20150122
 _ZN4KWin6Effect16paintEffectFrameEPNS_11EffectFrameE7QRegiondd@Base 4:5.1.95+git20150122
 _ZN4KWin6Effect16staticMetaObjectE@Base 4:5.1.95+git20150122
 _ZN4KWin6Effect20grabbedKeyboardEventEP9QKeyEvent@Base 4:5.1.95+git20150122
 _ZN4KWin6Effect21windowInputMouseEventEP6QEvent@Base 4:5.1.95+git20150122
 _ZN4KWin6Effect26setPositionTransformationsERNS_15WindowPaintDataER5QRectPNS_12EffectWindowERKS3_N2Qt15AspectRatioModeE@Base 4:5.1.95+git20150122
 _ZN4KWin6Effect5proxyEv@Base 4:5.1.95+git20150122
 _ZN4KWin6Effect7performENS0_7FeatureERK5QListI8QVariantE@Base 4:5.8.0
 _ZN4KWin6Effect7touchUpEjj@Base 4:5.8.0
 _ZN4KWin6Effect8providesENS0_7FeatureE@Base 4:5.1.95+git20150122
 _ZN4KWin6Effect9cursorPosEv@Base 4:5.1.95+git20150122
 _ZN4KWin6Effect9touchDownEjRK7QPointFj@Base 4:5.8.0
 _ZN4KWin6EffectC1Ev@Base 4:5.1.95+git20150122
 _ZN4KWin6EffectC2Ev@Base 4:5.1.95+git20150122
 _ZN4KWin6EffectD0Ev@Base 4:5.1.95+git20150122
 _ZN4KWin6EffectD1Ev@Base 4:5.1.95+git20150122
 _ZN4KWin6EffectD2Ev@Base 4:5.1.95+git20150122
 (optional=templinst)_ZN4KWin6MotionI7QPointFE9calculateEi@Base 4:5.1.95+git20150122
 (optional=templinst|arch=armhf)_ZN4KWin6MotionI7QPointFEC1ERKS2_@Base 4:5.6.2
 (optional=templinst|arch=armhf)_ZN4KWin6MotionI7QPointFEC2ERKS2_@Base 4:5.6.2
 _ZN4KWin7effectsE@Base 4:5.1.95+git20150122
 _ZN4KWin8Motion1DC1ERKS0_@Base 4:5.1.95+git20150122
 _ZN4KWin8Motion1DC1Eddd@Base 4:5.1.95+git20150122
 _ZN4KWin8Motion1DC2ERKS0_@Base 4:5.1.95+git20150122
 _ZN4KWin8Motion1DC2Eddd@Base 4:5.1.95+git20150122
 _ZN4KWin8Motion1DD1Ev@Base 4:5.1.95+git20150122
 _ZN4KWin8Motion1DD2Ev@Base 4:5.1.95+git20150122
 _ZN4KWin8Motion2DC1E7QPointFdd@Base 4:5.1.95+git20150122
 _ZN4KWin8Motion2DC1ERKS0_@Base 4:5.1.95+git20150122
 _ZN4KWin8Motion2DC2E7QPointFdd@Base 4:5.1.95+git20150122
 _ZN4KWin8Motion2DC2ERKS0_@Base 4:5.1.95+git20150122
 _ZN4KWin8Motion2DD1Ev@Base 4:5.1.95+git20150122
 _ZN4KWin8Motion2DD2Ev@Base 4:5.1.95+git20150122
 _ZN4KWin9PaintData15setRotationAxisEN2Qt4AxisE@Base 4:5.1.95+git20150122
 _ZN4KWin9PaintData15setRotationAxisERK9QVector3D@Base 4:5.1.95+git20150122
 _ZN4KWin9PaintData15setXTranslationEd@Base 4:5.1.95+git20150122
 _ZN4KWin9PaintData15setYTranslationEd@Base 4:5.1.95+git20150122
 _ZN4KWin9PaintData15setZTranslationEd@Base 4:5.1.95+git20150122
 _ZN4KWin9PaintData16setRotationAngleEd@Base 4:5.1.95+git20150122
 _ZN4KWin9PaintData17setRotationOriginERK9QVector3D@Base 4:5.1.95+git20150122
 _ZN4KWin9PaintData8setScaleERK9QVector2D@Base 4:5.1.95+git20150122
 _ZN4KWin9PaintData8setScaleERK9QVector3D@Base 4:5.1.95+git20150122
 _ZN4KWin9PaintData9setXScaleEd@Base 4:5.1.95+git20150122
 _ZN4KWin9PaintData9setYScaleEd@Base 4:5.1.95+git20150122
 _ZN4KWin9PaintData9setZScaleEd@Base 4:5.1.95+git20150122
 _ZN4KWin9PaintData9translateERK9QVector3D@Base 4:5.1.95+git20150122
 _ZN4KWin9PaintData9translateEddd@Base 4:5.1.95+git20150122
 _ZN4KWin9PaintDataC1Ev@Base 4:5.1.95+git20150122
 _ZN4KWin9PaintDataC2Ev@Base 4:5.1.95+git20150122
 _ZN4KWin9PaintDataD0Ev@Base 4:5.1.95+git20150122
 _ZN4KWin9PaintDataD1Ev@Base 4:5.1.95+git20150122
 _ZN4KWin9PaintDataD2Ev@Base 4:5.1.95+git20150122
 _ZNK4KWin10WindowQuad11makeSubQuadEdddd@Base 4:5.1.95+git20150122
 _ZNK4KWin10WindowQuad12smoothNeededEv@Base 4:5.1.95+git20150122
 _ZNK4KWin11EffectFrame11isCrossFadeEv@Base 4:5.1.95+git20150122
 _ZNK4KWin11EffectFrame17crossFadeProgressEv@Base 4:5.1.95+git20150122
 _ZNK4KWin11EffectFrame22screenProjectionMatrixEv@Base 4:5.6.2
 _ZNK4KWin12EffectWindow10activitiesEv@Base 4:5.1.95+git20150122
 _ZNK4KWin12EffectWindow10isComboBoxEv@Base 4:5.1.95+git20150122
 _ZNK4KWin12EffectWindow10isUserMoveEv@Base 4:5.1.95+git20150122
 _ZNK4KWin12EffectWindow10metaObjectEv@Base 4:5.1.95+git20150122
 _ZNK4KWin12EffectWindow10windowRoleEv@Base 4:5.1.95+git20150122
 _ZNK4KWin12EffectWindow10windowTypeEv@Base 4:5.1.95+git20150122
 _ZNK4KWin12EffectWindow11closeWindowEv@Base 4:5.1.95+git20150122
 _ZNK4KWin12EffectWindow11hasOwnShapeEv@Base 4:5.1.95+git20150122
 _ZNK4KWin12EffectWindow11isMinimizedEv@Base 4:5.1.95+git20150122
 _ZNK4KWin12EffectWindow11isOnDesktopEi@Base 4:5.1.95+git20150122
 _ZNK4KWin12EffectWindow11isPopupMenuEv@Base 4:5.1.95+git20150122
 _ZNK4KWin12EffectWindow11windowClassEv@Base 4:5.1.95+git20150122
 _ZNK4KWin12EffectWindow12acceptsFocusEv@Base 4:5.1.95+git20150122
 _ZNK4KWin12EffectWindow12contentsRectEv@Base 4:5.1.95+git20150122
 _ZNK4KWin12EffectWindow12iconGeometryEv@Base 4:5.1.95+git20150122
 _ZNK4KWin12EffectWindow12isCurrentTabEv@Base 4:5.1.95+git20150122
 _ZNK4KWin12EffectWindow12isFullScreenEv@Base 4:5.6.2
 _ZNK4KWin12EffectWindow12isOnActivityE7QString@Base 4:5.1.95+git20150122
 _ZNK4KWin12EffectWindow12isUserResizeEv@Base 4:5.1.95+git20150122
 _ZNK4KWin12EffectWindow13hasDecorationEv@Base 4:5.1.95+git20150122
 _ZNK4KWin12EffectWindow14isDropdownMenuEv@Base 4:5.1.95+git20150122
 _ZNK4KWin12EffectWindow14isNormalWindowEv@Base 4:5.1.95+git20150122
 _ZNK4KWin12EffectWindow14isNotificationEv@Base 4:5.1.95+git20150122
 _ZNK4KWin12EffectWindow14isSkipSwitcherEv@Base 4:5.1.95+git20150122
 _ZNK4KWin12EffectWindow14isUnresponsiveEv@Base 4:5.10.3.1
 _ZNK4KWin12EffectWindow15isOnAllDesktopsEv@Base 4:5.1.95+git20150122
 _ZNK4KWin12EffectWindow15isSpecialWindowEv@Base 4:5.1.95+git20150122
 _ZNK4KWin12EffectWindow16expandedGeometryEv@Base 4:5.1.95+git20150122
 _ZNK4KWin12EffectWindow17isOnAllActivitiesEv@Base 4:5.1.95+git20150122
 _ZNK4KWin12EffectWindow17isOnScreenDisplayEv@Base 4:5.3.0
 _ZNK4KWin12EffectWindow18decorationHasAlphaEv@Base 4:5.1.95+git20150122
 _ZNK4KWin12EffectWindow18isOnCurrentDesktopEv@Base 4:5.1.95+git20150122
 _ZNK4KWin12EffectWindow19isOnCurrentActivityEv@Base 4:5.1.95+git20150122
 _ZNK4KWin12EffectWindow19skipsCloseAnimationEv@Base 4:5.1.95+git20150122
 _ZNK4KWin12EffectWindow1xEv@Base 4:5.1.95+git20150122
 _ZNK4KWin12EffectWindow1yEv@Base 4:5.1.95+git20150122
 _ZNK4KWin12EffectWindow22isMovableAcrossScreensEv@Base 4:5.1.95+git20150122
 _ZNK4KWin12EffectWindow3posEv@Base 4:5.1.95+git20150122
 _ZNK4KWin12EffectWindow4iconEv@Base 4:5.1.95+git20150122
 _ZNK4KWin12EffectWindow4rectEv@Base 4:5.1.95+git20150122
 _ZNK4KWin12EffectWindow4sizeEv@Base 4:5.1.95+git20150122
 _ZNK4KWin12EffectWindow5widthEv@Base 4:5.1.95+git20150122
 _ZNK4KWin12EffectWindow6heightEv@Base 4:5.1.95+git20150122
 _ZNK4KWin12EffectWindow6isDockEv@Base 4:5.1.95+git20150122
 _ZNK4KWin12EffectWindow6isMenuEv@Base 4:5.1.95+git20150122
 _ZNK4KWin12EffectWindow6screenEv@Base 4:5.1.95+git20150122
 _ZNK4KWin12EffectWindow7captionEv@Base 4:5.1.95+git20150122
 _ZNK4KWin12EffectWindow7desktopEv@Base 4:5.1.95+git20150122
 _ZNK4KWin12EffectWindow7isModalEv@Base 4:5.1.95+git20150122
 _ZNK4KWin12EffectWindow7opacityEv@Base 4:5.1.95+git20150122
 _ZNK4KWin12EffectWindow7surfaceEv@Base 4:5.5.1
 _ZNK4KWin12EffectWindow8geometryEv@Base 4:5.1.95+git20150122
 _ZNK4KWin12EffectWindow8hasAlphaEv@Base 4:5.1.95+git20150122
 _ZNK4KWin12EffectWindow8isDialogEv@Base 4:5.1.95+git20150122
 _ZNK4KWin12EffectWindow8isSplashEv@Base 4:5.1.95+git20150122
 _ZNK4KWin12EffectWindow9basicUnitEv@Base 4:5.1.95+git20150122
 _ZNK4KWin12EffectWindow9isDNDIconEv@Base 4:5.1.95+git20150122
 _ZNK4KWin12EffectWindow9isDeletedEv@Base 4:5.1.95+git20150122
 _ZNK4KWin12EffectWindow9isDesktopEv@Base 4:5.1.95+git20150122
 _ZNK4KWin12EffectWindow9isManagedEv@Base 4:5.1.95+git20150122
 _ZNK4KWin12EffectWindow9isMovableEv@Base 4:5.1.95+git20150122
 _ZNK4KWin12EffectWindow9isToolbarEv@Base 4:5.1.95+git20150122
 _ZNK4KWin12EffectWindow9isTooltipEv@Base 4:5.1.95+git20150122
 _ZNK4KWin12EffectWindow9isUtilityEv@Base 4:5.1.95+git20150122
 _ZNK4KWin12EffectWindow9isVisibleEv@Base 4:5.1.95+git20150122
 _ZNK4KWin12EffectWindow9keepAboveEv@Base 4:5.1.95+git20150122
 _ZNK4KWin12PaintClipper8Iterator12boundingRectEv@Base 4:5.1.95+git20150122
 _ZNK4KWin14EffectsHandler10metaObjectEv@Base 4:5.1.95+git20150122
 _ZNK4KWin14EffectsHandler15compositingTypeEv@Base 4:5.1.95+git20150122
 _ZNK4KWin14EffectsHandler19isOpenGLCompositingEv@Base 4:5.1.95+git20150122
 _ZNK4KWin14WindowQuadList10makeArraysEPPfS2_RK6QSizeFb@Base 4:5.1.95+git20150122
 _ZNK4KWin14WindowQuadList12smoothNeededEv@Base 4:5.1.95+git20150122
 _ZNK4KWin14WindowQuadList13isTransformedEv@Base 4:5.1.95+git20150122
 _ZNK4KWin14WindowQuadList15makeRegularGridEii@Base 4:5.1.95+git20150122
 _ZNK4KWin14WindowQuadList21makeInterleavedArraysEjPNS_10GLVertex2DERK10QMatrix4x4@Base 4:5.1.95+git20150122
 _ZNK4KWin14WindowQuadList6selectENS_14WindowQuadTypeE@Base 4:5.1.95+git20150122
 _ZNK4KWin14WindowQuadList8makeGridEi@Base 4:5.1.95+git20150122
 _ZNK4KWin14WindowQuadList8splitAtXEd@Base 4:5.1.95+git20150122
 _ZNK4KWin14WindowQuadList8splitAtYEd@Base 4:5.1.95+git20150122
 _ZNK4KWin14WindowQuadList9filterOutENS_14WindowQuadTypeE@Base 4:5.1.95+git20150122
 _ZNK4KWin15AnimationEffect10clipWindowEPKNS_12EffectWindowERKNS_7AniDataERNS_14WindowQuadListE@Base 4:5.1.95+git20150122
 _ZNK4KWin15AnimationEffect10metaObjectEv@Base 4:5.1.95+git20150122
 _ZNK4KWin15AnimationEffect12interpolatedERKNS_7AniDataEi@Base 4:5.1.95+git20150122
 _ZNK4KWin15AnimationEffect5debugERK7QString@Base 4:5.1.95+git20150122
 _ZNK4KWin15AnimationEffect8clipRectERK5QRectRKNS_7AniDataE@Base 4:5.1.95+git20150122
 _ZNK4KWin15AnimationEffect8isActiveEv@Base 4:5.1.95+git20150122
 _ZNK4KWin15AnimationEffect8progressERKNS_7AniDataE@Base 4:5.1.95+git20150122
 _ZNK4KWin15AnimationEffect8validateENS0_9AttributeERjPNS_4FPx2ES4_PKNS_12EffectWindowE@Base 4:5.6.2
 _ZNK4KWin15ScreenPaintData14outputGeometryEv@Base 4:5.10.3.1
 _ZNK4KWin15ScreenPaintData16projectionMatrixEv@Base 4:5.6.2
 _ZNK4KWin15WindowPaintData10brightnessEv@Base 4:5.1.95+git20150122
 _ZNK4KWin15WindowPaintData10saturationEv@Base 4:5.1.95+git20150122
 _ZNK4KWin15WindowPaintData13setSaturationEd@Base 4:5.1.95+git20150122
 _ZNK4KWin15WindowPaintData15modelViewMatrixEv@Base 4:5.1.95+git20150122
 _ZNK4KWin15WindowPaintData16projectionMatrixEv@Base 4:5.1.95+git20150122
 _ZNK4KWin15WindowPaintData17crossFadeProgressEv@Base 4:5.1.95+git20150122
 _ZNK4KWin15WindowPaintData22screenProjectionMatrixEv@Base 4:5.6.2
 _ZNK4KWin15WindowPaintData6screenEv@Base 4:5.1.95+git20150122
 _ZNK4KWin15WindowPaintData7opacityEv@Base 4:5.1.95+git20150122
 _ZNK4KWin15WindowPaintData9setScreenEi@Base 4:5.1.95+git20150122
 _ZNK4KWin19EffectPluginFactory10metaObjectEv@Base 4:5.1.95+git20150122
 _ZNK4KWin19EffectPluginFactory11isSupportedEv@Base 4:5.1.95+git20150122
 _ZNK4KWin19EffectPluginFactory16enabledByDefaultEv@Base 4:5.1.95+git20150122
 _ZNK4KWin19WindowMotionManager13windowAtPointE6QPointb@Base 4:5.1.95+git20150122
 _ZNK4KWin19WindowMotionManager14targetGeometryEPNS_12EffectWindowE@Base 4:5.1.95+git20150122
 _ZNK4KWin19WindowMotionManager19transformedGeometryEPNS_12EffectWindowE@Base 4:5.1.95+git20150122
 _ZNK4KWin6Effect10metaObjectEv@Base 4:5.1.95+git20150122
 _ZNK4KWin6Effect13x11RootWindowEv@Base 4:5.1.95+git20150122
 _ZNK4KWin6Effect13xcbConnectionEv@Base 4:5.1.95+git20150122
 _ZNK4KWin6Effect28requestedEffectChainPositionEv@Base 4:5.1.95+git20150122
 _ZNK4KWin6Effect5debugERK7QString@Base 4:5.1.95+git20150122
 _ZNK4KWin6Effect8isActiveEv@Base 4:5.1.95+git20150122
 _ZNK4KWin9PaintData11translationEv@Base 4:5.1.95+git20150122
 _ZNK4KWin9PaintData12rotationAxisEv@Base 4:5.1.95+git20150122
 _ZNK4KWin9PaintData12xTranslationEv@Base 4:5.1.95+git20150122
 _ZNK4KWin9PaintData12yTranslationEv@Base 4:5.1.95+git20150122
 _ZNK4KWin9PaintData12zTranslationEv@Base 4:5.1.95+git20150122
 _ZNK4KWin9PaintData13rotationAngleEv@Base 4:5.1.95+git20150122
 _ZNK4KWin9PaintData14rotationOriginEv@Base 4:5.1.95+git20150122
 _ZNK4KWin9PaintData5scaleEv@Base 4:5.1.95+git20150122
 _ZNK4KWin9PaintData6xScaleEv@Base 4:5.1.95+git20150122
 _ZNK4KWin9PaintData6yScaleEv@Base 4:5.1.95+git20150122
 _ZNK4KWin9PaintData6zScaleEv@Base 4:5.1.95+git20150122
 _ZTIN4KWin11EffectFrameE@Base 4:5.1.95+git20150122
 _ZTIN4KWin12EffectWindowE@Base 4:5.1.95+git20150122
 _ZTIN4KWin14EffectsHandlerE@Base 4:5.1.95+git20150122
 _ZTIN4KWin15AnimationEffectE@Base 4:5.1.95+git20150122
 _ZTIN4KWin15ScreenPaintDataE@Base 4:5.1.95+git20150122
 _ZTIN4KWin15WindowPaintDataE@Base 4:5.1.95+git20150122
 _ZTIN4KWin17EffectWindowGroupE@Base 4:5.1.95+git20150122
 _ZTIN4KWin19EffectPluginFactoryE@Base 4:5.1.95+git20150122
 _ZTIN4KWin6EffectE@Base 4:5.1.95+git20150122
 _ZTIN4KWin9PaintDataE@Base 4:5.1.95+git20150122
 _ZTSN4KWin11EffectFrameE@Base 4:5.1.95+git20150122
 _ZTSN4KWin12EffectWindowE@Base 4:5.1.95+git20150122
 _ZTSN4KWin14EffectsHandlerE@Base 4:5.1.95+git20150122
 _ZTSN4KWin15AnimationEffectE@Base 4:5.1.95+git20150122
 _ZTSN4KWin15ScreenPaintDataE@Base 4:5.1.95+git20150122
 _ZTSN4KWin15WindowPaintDataE@Base 4:5.1.95+git20150122
 _ZTSN4KWin17EffectWindowGroupE@Base 4:5.1.95+git20150122
 _ZTSN4KWin19EffectPluginFactoryE@Base 4:5.1.95+git20150122
 _ZTSN4KWin6EffectE@Base 4:5.1.95+git20150122
 _ZTSN4KWin9PaintDataE@Base 4:5.1.95+git20150122
 _ZTVN4KWin11EffectFrameE@Base 4:5.1.95+git20150122
 _ZTVN4KWin12EffectWindowE@Base 4:5.1.95+git20150122
 _ZTVN4KWin14EffectsHandlerE@Base 4:5.1.95+git20150122
 _ZTVN4KWin15AnimationEffectE@Base 4:5.1.95+git20150122
 _ZTVN4KWin15ScreenPaintDataE@Base 4:5.1.95+git20150122
 _ZTVN4KWin15WindowPaintDataE@Base 4:5.1.95+git20150122
 _ZTVN4KWin17EffectWindowGroupE@Base 4:5.1.95+git20150122
 _ZTVN4KWin19EffectPluginFactoryE@Base 4:5.1.95+git20150122
 _ZTVN4KWin6EffectE@Base 4:5.1.95+git20150122
 _ZTVN4KWin9PaintDataE@Base 4:5.1.95+git20150122
 _ZZN4KWin10connectionEvE5s_con@Base 4:5.1.95+git20150122
