# SymbolsHelper-Confirmed: 4:5.7.0 amd64
libkwinxrenderutils.so.11 libkwinxrenderutils11 #MINVER#
 _ZN4KWin11preMultiplyERK6QColorf@Base 4:5.1.95+git20150122
 _ZN4KWin11xRenderFillERK18xcb_render_color_t@Base 4:5.1.95+git20150122
 _ZN4KWin11xRenderFillERK6QColor@Base 4:5.1.95+git20150122
 _ZN4KWin12XFixesRegionC1ERK7QRegion@Base 4:5.1.95+git20150122
 _ZN4KWin12XFixesRegionC2ERK7QRegion@Base 4:5.1.95+git20150122
 _ZN4KWin12XFixesRegionD0Ev@Base 4:5.1.95+git20150122
 _ZN4KWin12XFixesRegionD1Ev@Base 4:5.1.95+git20150122
 _ZN4KWin12XFixesRegionD2Ev@Base 4:5.1.95+git20150122
 _ZN4KWin12XRenderUtils14findPictFormatEj@Base 4:5.1.95+git20150122
 _ZN4KWin12XRenderUtils18findPictFormatInfoEj@Base 4:5.1.95+git20150122
 _ZN4KWin12XRenderUtils4initEP16xcb_connection_tj@Base 4:5.1.95+git20150122
 _ZN4KWin12XRenderUtils7cleanupEv@Base 4:5.7.0
 _ZN4KWin14XRenderPicture9fromImageERK6QImage@Base 4:5.1.95+git20150122
 _ZN4KWin14XRenderPictureC1ERK6QImage@Base 4:5.1.95+git20150122
 _ZN4KWin14XRenderPictureC1Eji@Base 4:5.1.95+git20150122
 _ZN4KWin14XRenderPictureC2ERK6QImage@Base 4:5.1.95+git20150122
 _ZN4KWin14XRenderPictureC2Eji@Base 4:5.1.95+git20150122
 _ZN4KWin16xRenderOffscreenEv@Base 4:5.1.95+git20150122
 _ZN4KWin16xRenderPopTargetEv@Base 4:5.1.95+git20150122
 _ZN4KWin17xRenderPushTargetEPNS_14XRenderPictureE@Base 4:5.1.95+git20150122
 _ZN4KWin18XRenderPictureDataD1Ev@Base 4:5.1.95+git20150122
 _ZN4KWin18XRenderPictureDataD2Ev@Base 4:5.1.95+git20150122
 _ZN4KWin19setXRenderOffscreenEb@Base 4:5.1.95+git20150122
 _ZN4KWin19xRenderBlendPictureEd@Base 4:5.1.95+git20150122
 _ZN4KWin22xRenderOffscreenTargetEv@Base 4:5.1.95+git20150122
 _ZN4KWin28scene_xRenderOffscreenTargetEv@Base 4:5.1.95+git20150122
 _ZN4KWin31scene_setXRenderOffscreenTargetEj@Base 4:5.1.95+git20150122
 _ZTIN4KWin12XFixesRegionE@Base 4:5.1.95+git20150122
 _ZTSN4KWin12XFixesRegionE@Base 4:5.1.95+git20150122
 _ZTVN4KWin12XFixesRegionE@Base 4:5.1.95+git20150122
